target datalayout = "e-m:e-p270:32:32-p271:32:32-p272:64:64-i64:64-i128:128-f80:128-n8:16:32:64-S128"
target triple = "x86_64-pc-linux-gnu"

%struct.USystemParams = type { ptr, ptr, ptr, i32 }

@.str.1 = private unnamed_addr constant [33 x i8] c" <icuSystemParams type=\22icu4c\22>\0A\00", align 1
@.str.2 = private unnamed_addr constant [33 x i8] c"    <param name=\22%s\22>%s</param>\0A\00", align 1
@.str.3 = private unnamed_addr constant [29 x i8] c"  <!-- n=\22%s\22 ERROR: %s -->\0A\00", align 1
@.str.4 = private unnamed_addr constant [21 x i8] c" </icuSystemParams>\0A\00", align 1

; Function Attrs: inlinehint mustprogress nounwind uwtable
define internal noundef signext i8 @_ZL9U_SUCCESS10UErrorCode(i32 noundef %0) #2 {
  %2 = alloca i32, align 4
  store i32 %0, ptr %2, align 4, !tbaa !15
  %3 = load i32, ptr %2, align 4, !tbaa !15
  %4 = icmp sle i32 %3, 0
  %5 = zext i1 %4 to i8
  ret i8 %5
}

; Function Attrs: mustprogress uwtable
define i32 @udbg_getSystemParameterValueByIndex(i32 noundef %0, ptr noundef %1, i32 noundef %2, ptr noundef %3) #1 {
  %5 = alloca i32, align 4
  %6 = alloca i32, align 4
  %7 = alloca ptr, align 8
  %8 = alloca i32, align 4
  %9 = alloca ptr, align 8
  store i32 %0, ptr %6, align 4, !tbaa !14
  store ptr %1, ptr %7, align 8, !tbaa !17
  store i32 %2, ptr %8, align 4, !tbaa !14
  store ptr %3, ptr %9, align 8, !tbaa !22
  %10 = load i32, ptr %6, align 4, !tbaa !14
  %11 = icmp sge i32 %10, 0
  br i1 %11, label %12, label %28

12:                                               ; preds = %4
  %13 = load i32, ptr %6, align 4, !tbaa !14
  %14 = icmp slt i32 %13, 25
  br i1 %14, label %15, label %28

15:                                               ; preds = %12
  %16 = load i32, ptr %6, align 4, !tbaa !14
  %17 = sext i32 %16 to i64
  %18 = getelementptr inbounds [25 x %struct.USystemParams], ptr @_ZL12systemParams, i64 0, i64 %17
  %19 = getelementptr inbounds nuw %struct.USystemParams, ptr %18, i32 0, i32 1
  %20 = load ptr, ptr %19, align 8, !tbaa !41
  %21 = load i32, ptr %6, align 4, !tbaa !14
  %22 = sext i32 %21 to i64
  %23 = getelementptr inbounds [25 x %struct.USystemParams], ptr @_ZL12systemParams, i64 0, i64 %22
  %24 = load ptr, ptr %7, align 8, !tbaa !17
  %25 = load i32, ptr %8, align 4, !tbaa !14
  %26 = load ptr, ptr %9, align 8, !tbaa !22
  %27 = call noundef i32 %20(ptr noundef %23, ptr noundef %24, i32 noundef %25, ptr noundef %26)
  store i32 %27, ptr %5, align 4
  br label %29

28:                                               ; preds = %12, %4
  store i32 0, ptr %5, align 4
  br label %29

29:                                               ; preds = %28, %15
  %30 = load i32, ptr %5, align 4
  ret i32 %30
}

; Function Attrs: mustprogress nounwind uwtable
define ptr @udbg_getSystemParameterNameByIndex(i32 noundef %0) #0 {
  %2 = alloca ptr, align 8
  %3 = alloca i32, align 4
  store i32 %0, ptr %3, align 4, !tbaa !14
  %4 = load i32, ptr %3, align 4, !tbaa !14
  %5 = icmp sge i32 %4, 0
  br i1 %5, label %6, label %15

6:                                                ; preds = %1
  %7 = load i32, ptr %3, align 4, !tbaa !14
  %8 = icmp slt i32 %7, 25
  br i1 %8, label %9, label %15

9:                                                ; preds = %6
  %10 = load i32, ptr %3, align 4, !tbaa !14
  %11 = sext i32 %10 to i64
  %12 = getelementptr inbounds [25 x %struct.USystemParams], ptr @_ZL12systemParams, i64 0, i64 %11
  %13 = getelementptr inbounds nuw %struct.USystemParams, ptr %12, i32 0, i32 0
  %14 = load ptr, ptr %13, align 16, !tbaa !40
  store ptr %14, ptr %2, align 8
  br label %16

15:                                               ; preds = %6, %1
  store ptr null, ptr %2, align 8
  br label %16

16:                                               ; preds = %15, %9
  %17 = load ptr, ptr %2, align 8
  ret ptr %17
}

; Function Attrs: mustprogress uwtable
define void @udbg_writeIcuInfo(ptr noundef %0) #1 {
  %2 = alloca ptr, align 8
  %3 = alloca [2000 x i8], align 16
  %4 = alloca ptr, align 8
  %5 = alloca i32, align 4
  %6 = alloca i32, align 4
  store ptr %0, ptr %2, align 8, !tbaa !42
  call void @llvm.lifetime.start.p0(i64 2000, ptr %3) #13
  %7 = load ptr, ptr %2, align 8, !tbaa !42
  %8 = call i32 (ptr, ptr, ...) @fprintf(ptr noundef %7, ptr noundef @.str.1) #13
  call void @llvm.lifetime.start.p0(i64 8, ptr %4) #13
  call void @llvm.lifetime.start.p0(i64 4, ptr %5) #13
  store i32 0, ptr %5, align 4, !tbaa !14
  br label %9

9:                                                ; preds = %33, %1
  %10 = load i32, ptr %5, align 4, !tbaa !14
  %11 = call ptr @udbg_getSystemParameterNameByIndex(i32 noundef %10)
  store ptr %11, ptr %4, align 8, !tbaa !17
  %12 = icmp ne ptr %11, null
  br i1 %12, label %14, label %13

13:                                               ; preds = %9
  call void @llvm.lifetime.end.p0(i64 4, ptr %5) #13
  br label %36

14:                                               ; preds = %9
  call void @llvm.lifetime.start.p0(i64 4, ptr %6) #13
  store i32 0, ptr %6, align 4, !tbaa !15
  %15 = load i32, ptr %5, align 4, !tbaa !14
  %16 = getelementptr inbounds [2000 x i8], ptr %3, i64 0, i64 0
  %17 = call i32 @udbg_getSystemParameterValueByIndex(i32 noundef %15, ptr noundef %16, i32 noundef 2000, ptr noundef %6)
  %18 = load i32, ptr %6, align 4, !tbaa !15
  %19 = call noundef signext i8 @_ZL9U_SUCCESS10UErrorCode(i32 noundef %18)
  %20 = icmp ne i8 %19, 0
  br i1 %20, label %21, label %26

21:                                               ; preds = %14
  %22 = load ptr, ptr %2, align 8, !tbaa !42
  %23 = load ptr, ptr %4, align 8, !tbaa !17
  %24 = getelementptr inbounds [2000 x i8], ptr %3, i64 0, i64 0
  %25 = call i32 (ptr, ptr, ...) @fprintf(ptr noundef %22, ptr noundef @.str.2, ptr noundef %23, ptr noundef %24) #13
  br label %32

26:                                               ; preds = %14
  %27 = load ptr, ptr %2, align 8, !tbaa !42
  %28 = load ptr, ptr %4, align 8, !tbaa !17
  %29 = load i32, ptr %6, align 4, !tbaa !15
  %30 = call ptr @u_errorName_77(i32 noundef %29)
  %31 = call i32 (ptr, ptr, ...) @fprintf(ptr noundef %27, ptr noundef @.str.3, ptr noundef %28, ptr noundef %30) #13
  br label %32

32:                                               ; preds = %26, %21
  call void @llvm.lifetime.end.p0(i64 4, ptr %6) #13
  br label %33

33:                                               ; preds = %32
  %34 = load i32, ptr %5, align 4, !tbaa !14
  %35 = add nsw i32 %34, 1
  store i32 %35, ptr %5, align 4, !tbaa !14
  br label %9, !llvm.loop !44

36:                                               ; preds = %13
  %37 = load ptr, ptr %2, align 8, !tbaa !42
  %38 = call i32 (ptr, ptr, ...) @fprintf(ptr noundef %37, ptr noundef @.str.4) #13
  call void @llvm.lifetime.end.p0(i64 8, ptr %4) #13
  call void @llvm.lifetime.end.p0(i64 2000, ptr %3) #13
  ret void
}